target datalayout = "e-m:e-p270:32:32-p271:32:32-p272:64:64-i64:64-i128:128-f80:128-n8:16:32:64-S128"
target triple = "x86_64-pc-linux-gnu"

%struct.RangeCoder = type { ptr, ptr, i32, i32, i32 }
%struct.Model256 = type { [256 x i32], [256 x i32], i32, [68 x i32], i32, i32, i32, i32 }

; Function Attrs: nounwind uwtable
define internal void @rac_normalise(ptr noundef %0) #1 {
  %2 = alloca ptr, align 8
  store ptr %0, ptr %2, align 8, !tbaa !58
  br label %3

3:                                                ; preds = %60, %1
  %4 = load ptr, ptr %2, align 8, !tbaa !58
  %5 = getelementptr inbounds nuw %struct.RangeCoder, ptr %4, i32 0, i32 2
  %6 = load i32, ptr %5, align 8, !tbaa !118
  %7 = shl i32 %6, 8
  store i32 %7, ptr %5, align 8, !tbaa !118
  %8 = load ptr, ptr %2, align 8, !tbaa !58
  %9 = getelementptr inbounds nuw %struct.RangeCoder, ptr %8, i32 0, i32 3
  %10 = load i32, ptr %9, align 4, !tbaa !115
  %11 = shl i32 %10, 8
  store i32 %11, ptr %9, align 4, !tbaa !115
  %12 = load ptr, ptr %2, align 8, !tbaa !58
  %13 = getelementptr inbounds nuw %struct.RangeCoder, ptr %12, i32 0, i32 0
  %14 = load ptr, ptr %13, align 8, !tbaa !113
  %15 = load ptr, ptr %2, align 8, !tbaa !58
  %16 = getelementptr inbounds nuw %struct.RangeCoder, ptr %15, i32 0, i32 1
  %17 = load ptr, ptr %16, align 8, !tbaa !114
  %18 = icmp ult ptr %14, %17
  br i1 %18, label %19, label %30

19:                                               ; preds = %3
  %20 = load ptr, ptr %2, align 8, !tbaa !58
  %21 = getelementptr inbounds nuw %struct.RangeCoder, ptr %20, i32 0, i32 0
  %22 = load ptr, ptr %21, align 8, !tbaa !113
  %23 = getelementptr inbounds nuw i8, ptr %22, i32 1
  store ptr %23, ptr %21, align 8, !tbaa !113
  %24 = load i8, ptr %22, align 1, !tbaa !116
  %25 = zext i8 %24 to i32
  %26 = load ptr, ptr %2, align 8, !tbaa !58
  %27 = getelementptr inbounds nuw %struct.RangeCoder, ptr %26, i32 0, i32 3
  %28 = load i32, ptr %27, align 4, !tbaa !115
  %29 = or i32 %28, %25
  store i32 %29, ptr %27, align 4, !tbaa !115
  br label %41

30:                                               ; preds = %3
  %31 = load ptr, ptr %2, align 8, !tbaa !58
  %32 = getelementptr inbounds nuw %struct.RangeCoder, ptr %31, i32 0, i32 3
  %33 = load i32, ptr %32, align 4, !tbaa !115
  %34 = icmp ne i32 %33, 0
  br i1 %34, label %40, label %35

35:                                               ; preds = %30
  %36 = load ptr, ptr %2, align 8, !tbaa !58
  %37 = getelementptr inbounds nuw %struct.RangeCoder, ptr %36, i32 0, i32 4
  store i32 1, ptr %37, align 8, !tbaa !66
  %38 = load ptr, ptr %2, align 8, !tbaa !58
  %39 = getelementptr inbounds nuw %struct.RangeCoder, ptr %38, i32 0, i32 3
  store i32 1, ptr %39, align 4, !tbaa !115
  br label %40

40:                                               ; preds = %35, %30
  br label %41

41:                                               ; preds = %40, %19
  %42 = load ptr, ptr %2, align 8, !tbaa !58
  %43 = getelementptr inbounds nuw %struct.RangeCoder, ptr %42, i32 0, i32 3
  %44 = load i32, ptr %43, align 4, !tbaa !115
  %45 = load ptr, ptr %2, align 8, !tbaa !58
  %46 = getelementptr inbounds nuw %struct.RangeCoder, ptr %45, i32 0, i32 2
  %47 = load i32, ptr %46, align 8, !tbaa !118
  %48 = icmp ugt i32 %44, %47
  br i1 %48, label %49, label %54

49:                                               ; preds = %41
  %50 = load ptr, ptr %2, align 8, !tbaa !58
  %51 = getelementptr inbounds nuw %struct.RangeCoder, ptr %50, i32 0, i32 4
  store i32 1, ptr %51, align 8, !tbaa !66
  %52 = load ptr, ptr %2, align 8, !tbaa !58
  %53 = getelementptr inbounds nuw %struct.RangeCoder, ptr %52, i32 0, i32 3
  store i32 1, ptr %53, align 4, !tbaa !115
  br label %54

54:                                               ; preds = %49, %41
  %55 = load ptr, ptr %2, align 8, !tbaa !58
  %56 = getelementptr inbounds nuw %struct.RangeCoder, ptr %55, i32 0, i32 2
  %57 = load i32, ptr %56, align 8, !tbaa !118
  %58 = icmp uge i32 %57, 16777216
  br i1 %58, label %59, label %60

59:                                               ; preds = %54
  ret void

60:                                               ; preds = %54
  br label %3
}

; Function Attrs: nounwind uwtable
define internal i32 @rac_get_model256_sym(ptr noundef %0, ptr noundef %1) #1 {
  %3 = alloca ptr, align 8
  %4 = alloca ptr, align 8
  %5 = alloca i32, align 4
  %6 = alloca i32, align 4
  %7 = alloca i32, align 4
  %8 = alloca i32, align 4
  %9 = alloca i32, align 4
  %10 = alloca i32, align 4
  %11 = alloca i32, align 4
  store ptr %0, ptr %3, align 8, !tbaa !58
  store ptr %1, ptr %4, align 8, !tbaa !78
  call void @llvm.lifetime.start.p0(i64 4, ptr %5) #8
  call void @llvm.lifetime.start.p0(i64 4, ptr %6) #8
  call void @llvm.lifetime.start.p0(i64 4, ptr %7) #8
  call void @llvm.lifetime.start.p0(i64 4, ptr %8) #8
  call void @llvm.lifetime.start.p0(i64 4, ptr %9) #8
  call void @llvm.lifetime.start.p0(i64 4, ptr %10) #8
  call void @llvm.lifetime.start.p0(i64 4, ptr %11) #8
  %12 = load ptr, ptr %3, align 8, !tbaa !58
  %13 = getelementptr inbounds nuw %struct.RangeCoder, ptr %12, i32 0, i32 2
  %14 = load i32, ptr %13, align 8, !tbaa !118
  store i32 %14, ptr %10, align 4, !tbaa !38
  %15 = load ptr, ptr %3, align 8, !tbaa !58
  %16 = getelementptr inbounds nuw %struct.RangeCoder, ptr %15, i32 0, i32 2
  %17 = load i32, ptr %16, align 8, !tbaa !118
  %18 = lshr i32 %17, 15
  store i32 %18, ptr %16, align 8, !tbaa !118
  %19 = load ptr, ptr %3, align 8, !tbaa !58
  %20 = getelementptr inbounds nuw %struct.RangeCoder, ptr %19, i32 0, i32 3
  %21 = load i32, ptr %20, align 4, !tbaa !115
  %22 = load ptr, ptr %3, align 8, !tbaa !58
  %23 = getelementptr inbounds nuw %struct.RangeCoder, ptr %22, i32 0, i32 2
  %24 = load i32, ptr %23, align 8, !tbaa !118
  %25 = udiv i32 %21, %24
  store i32 %25, ptr %11, align 4, !tbaa !38
  %26 = load i32, ptr %11, align 4, !tbaa !38
  %27 = lshr i32 %26, 9
  store i32 %27, ptr %8, align 4, !tbaa !38
  %28 = load ptr, ptr %4, align 8, !tbaa !78
  %29 = getelementptr inbounds nuw %struct.Model256, ptr %28, i32 0, i32 3
  %30 = load i32, ptr %8, align 4, !tbaa !38
  %31 = sext i32 %30 to i64
  %32 = getelementptr inbounds [68 x i32], ptr %29, i64 0, i64 %31
  %33 = load i32, ptr %32, align 4, !tbaa !38
  store i32 %33, ptr %5, align 4, !tbaa !38
  %34 = load ptr, ptr %4, align 8, !tbaa !78
  %35 = getelementptr inbounds nuw %struct.Model256, ptr %34, i32 0, i32 3
  %36 = load i32, ptr %8, align 4, !tbaa !38
  %37 = add nsw i32 %36, 1
  %38 = sext i32 %37 to i64
  %39 = getelementptr inbounds [68 x i32], ptr %35, i64 0, i64 %38
  %40 = load i32, ptr %39, align 4, !tbaa !38
  %41 = add nsw i32 %40, 1
  store i32 %41, ptr %6, align 4, !tbaa !38
  store i32 %41, ptr %7, align 4, !tbaa !38
  br label %42

42:                                               ; preds = %69, %2
  %43 = load i32, ptr %7, align 4, !tbaa !38
  %44 = load i32, ptr %5, align 4, !tbaa !38
  %45 = add nsw i32 %44, 1
  %46 = icmp sgt i32 %43, %45
  br i1 %46, label %47, label %70

47:                                               ; preds = %42
  %48 = load i32, ptr %7, align 4, !tbaa !38
  %49 = load i32, ptr %5, align 4, !tbaa !38
  %50 = add nsw i32 %48, %49
  %51 = ashr i32 %50, 1
  store i32 %51, ptr %8, align 4, !tbaa !38
  %52 = load ptr, ptr %4, align 8, !tbaa !78
  %53 = getelementptr inbounds nuw %struct.Model256, ptr %52, i32 0, i32 1
  %54 = load i32, ptr %8, align 4, !tbaa !38
  %55 = sext i32 %54 to i64
  %56 = getelementptr inbounds [256 x i32], ptr %53, i64 0, i64 %55
  %57 = load i32, ptr %56, align 4, !tbaa !38
  %58 = load i32, ptr %11, align 4, !tbaa !38
  %59 = icmp ule i32 %57, %58
  br i1 %59, label %60, label %63

60:                                               ; preds = %47
  %61 = load i32, ptr %6, align 4, !tbaa !38
  store i32 %61, ptr %7, align 4, !tbaa !38
  %62 = load i32, ptr %8, align 4, !tbaa !38
  store i32 %62, ptr %5, align 4, !tbaa !38
  br label %69

63:                                               ; preds = %47
  %64 = load i32, ptr %7, align 4, !tbaa !38
  %65 = load i32, ptr %5, align 4, !tbaa !38
  %66 = add nsw i32 %64, %65
  %67 = ashr i32 %66, 1
  store i32 %67, ptr %7, align 4, !tbaa !38
  %68 = load i32, ptr %8, align 4, !tbaa !38
  store i32 %68, ptr %6, align 4, !tbaa !38
  br label %69

69:                                               ; preds = %63, %60
  br label %42, !llvm.loop !153

70:                                               ; preds = %42
  %71 = load ptr, ptr %4, align 8, !tbaa !78
  %72 = getelementptr inbounds nuw %struct.Model256, ptr %71, i32 0, i32 1
  %73 = load i32, ptr %5, align 4, !tbaa !38
  %74 = sext i32 %73 to i64
  %75 = getelementptr inbounds [256 x i32], ptr %72, i64 0, i64 %74
  %76 = load i32, ptr %75, align 4, !tbaa !38
  %77 = load ptr, ptr %3, align 8, !tbaa !58
  %78 = getelementptr inbounds nuw %struct.RangeCoder, ptr %77, i32 0, i32 2
  %79 = load i32, ptr %78, align 8, !tbaa !118
  %80 = mul i32 %76, %79
  store i32 %80, ptr %9, align 4, !tbaa !38
  %81 = load i32, ptr %5, align 4, !tbaa !38
  %82 = icmp ne i32 %81, 255
  br i1 %82, label %83, label %95

83:                                               ; preds = %70
  %84 = load ptr, ptr %4, align 8, !tbaa !78
  %85 = getelementptr inbounds nuw %struct.Model256, ptr %84, i32 0, i32 1
  %86 = load i32, ptr %5, align 4, !tbaa !38
  %87 = add nsw i32 %86, 1
  %88 = sext i32 %87 to i64
  %89 = getelementptr inbounds [256 x i32], ptr %85, i64 0, i64 %88
  %90 = load i32, ptr %89, align 4, !tbaa !38
  %91 = load ptr, ptr %3, align 8, !tbaa !58
  %92 = getelementptr inbounds nuw %struct.RangeCoder, ptr %91, i32 0, i32 2
  %93 = load i32, ptr %92, align 8, !tbaa !118
  %94 = mul i32 %90, %93
  store i32 %94, ptr %10, align 4, !tbaa !38
  br label %95

95:                                               ; preds = %83, %70
  %96 = load i32, ptr %9, align 4, !tbaa !38
  %97 = load ptr, ptr %3, align 8, !tbaa !58
  %98 = getelementptr inbounds nuw %struct.RangeCoder, ptr %97, i32 0, i32 3
  %99 = load i32, ptr %98, align 4, !tbaa !115
  %100 = sub i32 %99, %96
  store i32 %100, ptr %98, align 4, !tbaa !115
  %101 = load i32, ptr %10, align 4, !tbaa !38
  %102 = load i32, ptr %9, align 4, !tbaa !38
  %103 = sub i32 %101, %102
  %104 = load ptr, ptr %3, align 8, !tbaa !58
  %105 = getelementptr inbounds nuw %struct.RangeCoder, ptr %104, i32 0, i32 2
  store i32 %103, ptr %105, align 8, !tbaa !118
  %106 = load ptr, ptr %3, align 8, !tbaa !58
  %107 = getelementptr inbounds nuw %struct.RangeCoder, ptr %106, i32 0, i32 2
  %108 = load i32, ptr %107, align 8, !tbaa !118
  %109 = icmp ult i32 %108, 16777216
  br i1 %109, label %110, label %112

110:                                              ; preds = %95
  %111 = load ptr, ptr %3, align 8, !tbaa !58
  call void @rac_normalise(ptr noundef %111)
  br label %112

112:                                              ; preds = %110, %95
  %113 = load ptr, ptr %4, align 8, !tbaa !78
  %114 = load i32, ptr %5, align 4, !tbaa !38
  call void @model256_update(ptr noundef %113, i32 noundef %114)
  %115 = load i32, ptr %5, align 4, !tbaa !38
  call void @llvm.lifetime.end.p0(i64 4, ptr %11) #8
  call void @llvm.lifetime.end.p0(i64 4, ptr %10) #8
  call void @llvm.lifetime.end.p0(i64 4, ptr %9) #8
  call void @llvm.lifetime.end.p0(i64 4, ptr %8) #8
  call void @llvm.lifetime.end.p0(i64 4, ptr %7) #8
  call void @llvm.lifetime.end.p0(i64 4, ptr %6) #8
  call void @llvm.lifetime.end.p0(i64 4, ptr %5) #8
  ret i32 %115
}