; Function Attrs: nofree norecurse nosync nounwind memory(read, argmem: readwrite, inaccessiblemem: none) uwtable
define internal fastcc i32 @rac_get_model256_sym(ptr noundef captures(none) %0, ptr noundef captures(none) %1) unnamed_addr #6 {
  %3 = getelementptr inbounds nuw i8, ptr %0, i64 16
  %4 = load i32, ptr %3, align 8, !tbaa !61
  %5 = lshr i32 %4, 15
  store i32 %5, ptr %3, align 8, !tbaa !61
  %6 = getelementptr inbounds nuw i8, ptr %0, i64 20
  %7 = load i32, ptr %6, align 4, !tbaa !59
  %8 = udiv i32 %7, %5
  %9 = lshr i32 %8, 9
  %10 = getelementptr inbounds nuw i8, ptr %1, i64 2052
  %11 = zext nneg i32 %9 to i64
  %12 = getelementptr inbounds nuw [68 x i32], ptr %10, i64 0, i64 %11
  %13 = load i32, ptr %12, align 4, !tbaa !56
  %14 = add nuw nsw i32 %9, 1
  %15 = zext nneg i32 %14 to i64
  %16 = getelementptr inbounds nuw [68 x i32], ptr %10, i64 0, i64 %15
  %17 = load i32, ptr %16, align 4, !tbaa !56
  %18 = add nsw i32 %13, 1
  %19 = icmp sgt i32 %17, %13
  br i1 %19, label %.lr.ph, label %._crit_edge

.lr.ph:                                           ; preds = %2
  %20 = add nsw i32 %17, 1
  %21 = getelementptr inbounds nuw i8, ptr %1, i64 1024
  br label %22

22:                                               ; preds = %.lr.ph, %22
  %.045 = phi i32 [ %13, %.lr.ph ], [ %.0., %22 ]
  %.04044 = phi i32 [ %20, %.lr.ph ], [ %..040, %22 ]
  %23 = add nsw i32 %.045, %.04044
  %24 = ashr i32 %23, 1
  %25 = sext i32 %24 to i64
  %26 = getelementptr inbounds [256 x i32], ptr %21, i64 0, i64 %25
  %27 = load i32, ptr %26, align 4, !tbaa !56
  %.not43 = icmp ugt i32 %27, %8
  %..040 = select i1 %.not43, i32 %24, i32 %.04044
  %.0. = select i1 %.not43, i32 %.045, i32 %24
  %28 = add nsw i32 %.0., 1
  %29 = icmp sgt i32 %..040, %28
  br i1 %29, label %22, label %._crit_edge, !llvm.loop !109

._crit_edge:                                      ; preds = %22, %2
  %.0.lcssa = phi i32 [ %13, %2 ], [ %.0., %22 ]
  %.lcssa = phi i32 [ %18, %2 ], [ %28, %22 ]
  %30 = getelementptr inbounds nuw i8, ptr %1, i64 1024
  %31 = sext i32 %.0.lcssa to i64
  %32 = getelementptr inbounds [256 x i32], ptr %30, i64 0, i64 %31
  %33 = load i32, ptr %32, align 4, !tbaa !56
  %34 = mul i32 %33, %5
  %.not = icmp eq i32 %.0.lcssa, 255
  br i1 %.not, label %40, label %35

35:                                               ; preds = %._crit_edge
  %36 = sext i32 %.lcssa to i64
  %37 = getelementptr inbounds [256 x i32], ptr %30, i64 0, i64 %36
  %38 = load i32, ptr %37, align 4, !tbaa !56
  %39 = mul i32 %38, %5
  br label %40

40:                                               ; preds = %35, %._crit_edge
  %.037 = phi i32 [ %39, %35 ], [ %4, %._crit_edge ]
  %41 = sub i32 %7, %34
  store i32 %41, ptr %6, align 4, !tbaa !59
  %42 = sub i32 %.037, %34
  store i32 %42, ptr %3, align 8, !tbaa !61
  %43 = icmp ult i32 %42, 16777216
  br i1 %43, label %44, label %rac_normalise.exit

44:                                               ; preds = %40
  %45 = getelementptr inbounds nuw i8, ptr %0, i64 8
  %46 = load ptr, ptr %45, align 8, !tbaa !58
  %.promoted15.i = load ptr, ptr %0, align 8, !tbaa !57
  %47 = getelementptr inbounds nuw i8, ptr %0, i64 24
  br label %48

48:                                               ; preds = %67, %44
  %49 = phi ptr [ %63, %67 ], [ %.promoted15.i, %44 ]
  %50 = phi i32 [ %68, %67 ], [ %41, %44 ]
  %51 = phi i32 [ %52, %67 ], [ %42, %44 ]
  %52 = shl nuw i32 %51, 8
  store i32 %52, ptr %3, align 8, !tbaa !61
  %53 = shl i32 %50, 8
  store i32 %53, ptr %6, align 4, !tbaa !59
  %54 = icmp ult ptr %49, %46
  br i1 %54, label %55, label %60

55:                                               ; preds = %48
  %56 = getelementptr inbounds nuw i8, ptr %49, i64 1
  store ptr %56, ptr %0, align 8, !tbaa !57
  %57 = load i8, ptr %49, align 1, !tbaa !49
  %58 = zext i8 %57 to i32
  %59 = or disjoint i32 %53, %58
  br label %.sink.split.i

60:                                               ; preds = %48
  %.not.i = icmp eq i32 %53, 0
  br i1 %.not.i, label %61, label %62

61:                                               ; preds = %60
  store i32 1, ptr %47, align 8, !tbaa !62
  br label %.sink.split.i

.sink.split.i:                                    ; preds = %61, %55
  %.sink.i = phi i32 [ 1, %61 ], [ %59, %55 ]
  %.ph.i = phi ptr [ %49, %61 ], [ %56, %55 ]
  store i32 %.sink.i, ptr %6, align 4, !tbaa !59
  br label %62

62:                                               ; preds = %.sink.split.i, %60
  %63 = phi ptr [ %49, %60 ], [ %.ph.i, %.sink.split.i ]
  %64 = phi i32 [ %53, %60 ], [ %.sink.i, %.sink.split.i ]
  %65 = icmp ugt i32 %64, %52
  br i1 %65, label %66, label %67

66:                                               ; preds = %62
  store i32 1, ptr %47, align 8, !tbaa !62
  store i32 1, ptr %6, align 4, !tbaa !59
  br label %67

67:                                               ; preds = %66, %62
  %68 = phi i32 [ 1, %66 ], [ %64, %62 ]
  %69 = icmp ugt i32 %51, 65535
  br i1 %69, label %rac_normalise.exit, label %48

rac_normalise.exit:                               ; preds = %67, %40
  tail call fastcc void @model256_update(ptr noundef %1, i32 noundef %.0.lcssa)
  ret i32 %.0.lcssa
}